Certificate:
    Data:
        Version: 3 (0x2)
        Serial Number:
            e0:be:e1:cb:6d:8c:80:07:f3:32:db:1c:49:6d:73:9c
    Signature Algorithm: sha256WithRSAEncryption
        Issuer: CN=Easy-RSA CA
        Validity
            Not Before: Oct 27 16:05:01 2017 GMT
            Not After : Oct 25 16:05:01 2027 GMT
        Subject: CN=sentinel.example.com
        Subject Public Key Info:
            Public Key Algorithm: rsaEncryption
                Public-Key: (2048 bit)
                Modulus:
                    00:c6:0c:fb:ad:d8:b1:be:2c:a9:44:c3:09:59:5a:
                    b0:2d:19:4d:19:88:7f:e4:22:65:c9:9e:e3:71:9f:
                    ac:79:af:5f:51:64:ba:27:29:5c:f2:e3:cb:8b:57:
                    2a:d7:e6:86:a5:37:b5:f5:a7:92:9e:fe:fc:29:73:
                    e5:2f:3f:42:f5:65:70:30:b9:e4:80:e3:12:ec:1e:
                    0e:c0:ac:79:4d:5c:0f:55:7f:94:62:7e:80:55:8a:
                    ac:17:ad:c8:f4:3a:f2:48:e3:88:32:8d:56:71:9b:
                    7b:0f:56:9d:fe:7d:ce:ad:a9:b4:ed:0f:80:01:97:
                    11:13:0e:21:c6:2d:eb:f2:f6:ea:21:49:8f:c8:ae:
                    ea:22:ff:b1:04:bc:a8:9d:91:31:a4:78:40:09:f6:
                    88:87:d7:09:4d:14:84:da:d5:f0:50:b0:2e:8c:ff:
                    01:b9:a9:01:a2:98:c3:28:fe:4b:ae:ca:b5:3c:2d:
                    51:cd:aa:c3:36:fc:f5:26:14:f5:e7:82:85:06:0e:
                    26:f1:26:14:d0:28:f5:b6:bb:4e:51:0b:79:cc:24:
                    4b:53:9e:39:71:9f:74:91:75:b9:af:0c:ce:7e:94:
                    7f:e1:94:2c:e2:be:da:af:91:49:42:dd:dd:6a:29:
                    f5:9c:6d:e8:e3:4b:52:b1:2a:c1:ad:44:00:b7:7e:
                    33:bd
                Exponent: 65537 (0x10001)
        X509v3 extensions:
            X509v3 Basic Constraints:
                CA:FALSE
            X509v3 Subject Key Identifier:
                E5:1A:25:63:63:07:B7:DA:80:92:5D:95:65:99:AB:DC:92:A9:9F:38
            X509v3 Authority Key Identifier:
                keyid:D4:5A:F7:D0:FA:78:0E:8E:DA:0E:1F:C7:4D:8C:10:C3:C7:A2:71:7F
                DirName:/CN=Easy-RSA CA
                serial:F2:C4:5D:6F:CC:8B:26:57

            X509v3 Extended Key Usage:
                TLS Web Server Authentication
            X509v3 Key Usage:
                Digital Signature, Key Encipherment
            X509v3 Subject Alternative Name:
                DNS:sentinel.example.com
    Signature Algorithm: sha256WithRSAEncryption
         8d:0e:fc:37:8e:1a:fe:fc:99:51:04:68:b7:05:54:97:50:89:
         9e:d2:ce:3f:92:93:32:85:e6:3a:d3:b3:4b:0a:f7:c8:36:b8:
         0a:6a:d9:dd:d2:78:83:1c:d1:2f:b8:c9:57:e5:25:ca:1b:5e:
         65:3a:a4:ee:e0:ab:ba:6a:01:28:12:01:07:2a:2f:ea:1b:6b:
         83:de:da:7d:c5:bb:0e:4a:b3:e6:e8:2a:1b:d5:d9:f4:67:b7:
         8f:98:74:77:63:d5:2b:43:d4:0c:7b:fe:3c:e7:aa:f6:39:bf:
         d1:ad:ab:b3:c9:39:fc:9d:6a:c1:52:39:f7:dc:50:e0:0a:cf:
         b9:07:49:15:af:0b:59:e1:3a:a5:dd:72:d0:f6:fc:69:4e:09:
         f4:7c:01:3d:53:84:93:d8:5d:03:cd:37:92:fc:25:07:aa:af:
         42:e0:a6:67:f0:18:28:8f:e1:3b:e4:b5:4a:ec:a3:7a:0f:b8:
         43:10:6a:d9:37:3e:f3:74:b7:28:31:ae:95:1b:41:a7:9a:2f:
         71:b0:a1:5f:ad:8f:4e:ab:ff:b8:b1:c9:7c:b3:b7:83:4b:cf:
         b7:c9:db:57:7a:00:23:36:37:cd:ca:98:d9:ce:01:60:ca:e4:
         64:6a:11:9d:fe:ce:b1:63:06:6c:f0:28:28:ec:99:55:bd:20:
         b5:56:d2:0f
-----BEGIN CERTIFICATE-----
MIIDeTCCAmGgAwIBAgIRAOC+4cttjIAH8zLbHEltc5wwDQYJKoZIhvcNAQELBQAw
FjEUMBIGA1UEAwwLRWFzeS1SU0EgQ0EwHhcNMTcxMDI3MTYwNTAxWhcNMjcxMDI1
MTYwNTAxWjAfMR0wGwYDVQQDDBRzZW50aW5lbC5leGFtcGxlLmNvbTCCASIwDQYJ
KoZIhvcNAQEBBQADggEPADCCAQoCggEBAMYM+63Ysb4sqUTDCVlasC0ZTRmIf+Qi
Zcme43GfrHmvX1FkuicpXPLjy4tXKtfmhqU3tfWnkp7+/Clz5S8/QvVlcDC55IDj
EuweDsCseU1cD1V/lGJ+gFWKrBetyPQ68kjjiDKNVnGbew9Wnf59zq2ptO0PgAGX
ERMOIcYt6/L26iFJj8iu6iL/sQS8qJ2RMaR4QAn2iIfXCU0UhNrV8FCwLoz/Abmp
AaKYwyj+S67KtTwtUc2qwzb89SYU9eeChQYOJvEmFNAo9ba7TlELecwkS1OeOXGf
dJF1ua8Mzn6Uf+GULOK+2q+RSULd3Wop9Zxt6ONLUrEqwa1EALd+M70CAwEAAaOB
uDCBtTAJBgNVHRMEAjAAMB0GA1UdDgQWBBTlGiVjYwe32oCSXZVlmavckqmfODBG
BgNVHSMEPzA9gBTUWvfQ+ngOjtoOH8dNjBDDx6Jxf6EapBgwFjEUMBIGA1UEAwwL
RWFzeS1SU0EgQ0GCCQDyxF1vzIsmVzATBgNVHSUEDDAKBggrBgEFBQcDATALBgNV
HQ8EBAMCBaAwHwYDVR0RBBgwFoIUc2VudGluZWwuZXhhbXBsZS5jb20wDQYJKoZI
hvcNAQELBQADggEBAI0O/DeOGv78mVEEaLcFVJdQiZ7Szj+SkzKF5jrTs0sK98g2
uApq2d3SeIMc0S+4yVflJcobXmU6pO7gq7pqASgSAQcqL+oba4Pe2n3Fuw5Ks+bo
KhvV2fRnt4+YdHdj1StD1Ax7/jznqvY5v9Gtq7PJOfydasFSOffcUOAKz7kHSRWv
C1nhOqXdctD2/GlOCfR8AT1ThJPYXQPNN5L8JQeqr0LgpmfwGCiP4TvktUrso3oP
uEMQatk3PvN0tygxrpUbQaeaL3GwoV+tj06r/7ixyXyzt4NLz7fJ21d6ACM2N83K
mNnOAWDK5GRqEZ3+zrFjBmzwKCjsmVW9ILVW0g8=
-----END CERTIFICATE-----