Certificate:
    Data:
        Version: 3 (0x2)
        Serial Number:
            b7:71:b5:35:45:bf:1f:52:d9:b5:ce:55:9e:a1:a9:ea
    Signature Algorithm: sha256WithRSAEncryption
        Issuer: CN=Easy-RSA CA
        Validity
            Not Before: Nov  3 11:25:16 2017 GMT
            Not After : Nov  1 11:25:16 2027 GMT
        Subject: CN=sentinel.example.com
        Subject Public Key Info:
            Public Key Algorithm: rsaEncryption
                Public-Key: (2048 bit)
                Modulus:
                    00:cc:3f:a3:5f:31:77:3b:7f:7f:63:f3:91:db:47:
                    41:95:b0:b4:cb:ab:93:a6:e5:91:7f:08:a1:0b:d7:
                    02:4b:85:2c:35:23:29:e3:f9:af:7e:e7:e1:46:2b:
                    e5:86:5b:9d:11:ee:83:b7:f0:84:48:b1:ca:28:47:
                    3b:90:d0:63:a3:66:01:49:0c:98:3a:f4:62:79:92:
                    39:cc:ad:19:20:97:a5:eb:fb:7b:6e:e9:ee:80:50:
                    67:96:da:06:e8:67:d2:c1:e6:ef:5d:c4:bf:2c:ca:
                    bf:2c:63:c1:c5:d4:08:5a:a8:8f:88:99:f7:8e:7a:
                    a2:f2:91:b4:07:cb:7c:bd:e0:54:60:5e:ff:af:64:
                    10:f2:4b:1c:dd:7d:30:2d:62:7c:31:04:49:54:bf:
                    32:99:a8:04:aa:38:59:dd:2c:31:6e:9a:b3:38:c5:
                    31:00:50:00:78:bd:fd:af:8a:58:8b:db:0e:4c:81:
                    26:e6:5d:c1:0d:66:65:99:8f:68:15:3c:53:e2:bb:
                    3d:51:49:11:84:05:fd:eb:c7:57:30:ca:6f:a6:f1:
                    18:ab:db:1d:52:c0:5e:fb:db:42:d6:49:c9:7a:fc:
                    8e:ba:8c:cd:44:e7:5c:44:5a:3d:6a:6d:44:f5:0e:
                    9d:07:fe:6c:02:0a:91:3c:b4:d1:97:02:e5:1c:46:
                    5c:2f
                Exponent: 65537 (0x10001)
        X509v3 extensions:
            X509v3 Basic Constraints: 
                CA:FALSE
            X509v3 Subject Key Identifier: 
                C1:D2:51:2D:23:0A:6A:DF:5A:55:CA:24:04:43:FA:9A:4D:C5:5C:03
            X509v3 Authority Key Identifier: 
                keyid:11:4C:45:95:A5:C9:F4:54:CD:2A:31:F2:EB:A7:76:FD:10:D8:10:2F
                DirName:/CN=Easy-RSA CA
                serial:E3:08:2F:87:86:EF:81:F4

            X509v3 Extended Key Usage: 
                TLS Web Server Authentication
            X509v3 Key Usage: 
                Digital Signature, Key Encipherment
            X509v3 Subject Alternative Name: 
                DNS:sentinel.example.com
    Signature Algorithm: sha256WithRSAEncryption
         d2:1c:02:bd:82:08:88:e6:ea:db:80:58:24:7c:c8:7d:42:e7:
         3b:3f:f3:8f:b4:cd:40:88:c1:72:8d:ee:bd:28:6b:f1:c3:30:
         5e:3a:27:01:97:19:65:71:b2:3d:71:e8:0f:b1:14:37:ef:02:
         36:70:c3:45:d2:a2:a5:00:97:17:1d:0b:3e:d4:e1:30:0e:e7:
         b6:82:10:70:dc:b1:1c:6f:da:f3:2a:39:82:3e:84:98:01:87:
         df:a5:9e:bd:cb:01:a2:c6:da:91:7f:6c:98:79:68:d6:3f:d9:
         72:8a:31:96:4a:bf:97:3a:e6:27:17:67:21:93:55:21:84:b2:
         7f:95:76:57:31:74:f0:ca:c7:58:03:19:6e:d6:ce:c6:6f:fa:
         43:38:ee:ce:3f:88:7c:ab:15:70:9d:29:d1:a4:2e:ca:bb:2a:
         b8:67:52:33:1a:2d:fc:ff:75:3b:cc:85:db:cc:de:44:71:c4:
         56:07:f3:ab:c7:33:02:43:b4:f6:de:60:2f:22:e7:95:fc:8e:
         a1:76:40:fa:45:6f:f1:38:c0:db:18:19:d1:f7:d1:43:1a:e9:
         cf:02:f1:a1:73:f9:50:97:74:71:84:01:ed:95:bc:78:30:9c:
         3c:ca:de:07:9a:f1:a7:72:cf:32:5c:ab:8a:1b:91:08:72:54:
         67:f9:5f:84
-----BEGIN CERTIFICATE-----
MIIDeTCCAmGgAwIBAgIRALdxtTVFvx9S2bXOVZ6hqeowDQYJKoZIhvcNAQELBQAw
FjEUMBIGA1UEAwwLRWFzeS1SU0EgQ0EwHhcNMTcxMTAzMTEyNTE2WhcNMjcxMTAx
MTEyNTE2WjAfMR0wGwYDVQQDDBRzZW50aW5lbC5leGFtcGxlLmNvbTCCASIwDQYJ
KoZIhvcNAQEBBQADggEPADCCAQoCggEBAMw/o18xdzt/f2PzkdtHQZWwtMurk6bl
kX8IoQvXAkuFLDUjKeP5r37n4UYr5YZbnRHug7fwhEixyihHO5DQY6NmAUkMmDr0
YnmSOcytGSCXpev7e27p7oBQZ5baBuhn0sHm713EvyzKvyxjwcXUCFqoj4iZ9456
ovKRtAfLfL3gVGBe/69kEPJLHN19MC1ifDEESVS/MpmoBKo4Wd0sMW6aszjFMQBQ
AHi9/a+KWIvbDkyBJuZdwQ1mZZmPaBU8U+K7PVFJEYQF/evHVzDKb6bxGKvbHVLA
XvvbQtZJyXr8jrqMzUTnXERaPWptRPUOnQf+bAIKkTy00ZcC5RxGXC8CAwEAAaOB
uDCBtTAJBgNVHRMEAjAAMB0GA1UdDgQWBBTB0lEtIwpq31pVyiQEQ/qaTcVcAzBG
BgNVHSMEPzA9gBQRTEWVpcn0VM0qMfLrp3b9ENgQL6EapBgwFjEUMBIGA1UEAwwL
RWFzeS1SU0EgQ0GCCQDjCC+Hhu+B9DATBgNVHSUEDDAKBggrBgEFBQcDATALBgNV
HQ8EBAMCBaAwHwYDVR0RBBgwFoIUc2VudGluZWwuZXhhbXBsZS5jb20wDQYJKoZI
hvcNAQELBQADggEBANIcAr2CCIjm6tuAWCR8yH1C5zs/84+0zUCIwXKN7r0oa/HD
MF46JwGXGWVxsj1x6A+xFDfvAjZww0XSoqUAlxcdCz7U4TAO57aCEHDcsRxv2vMq
OYI+hJgBh9+lnr3LAaLG2pF/bJh5aNY/2XKKMZZKv5c65icXZyGTVSGEsn+Vdlcx
dPDKx1gDGW7WzsZv+kM47s4/iHyrFXCdKdGkLsq7KrhnUjMaLfz/dTvMhdvM3kRx
xFYH86vHMwJDtPbeYC8i55X8jqF2QPpFb/E4wNsYGdH30UMa6c8C8aFz+VCXdHGE
Ae2VvHgwnDzK3gea8adyzzJcq4obkQhyVGf5X4Q=
-----END CERTIFICATE-----